target datalayout = "e-m:e-p270:32:32-p271:32:32-p272:64:64-i64:64-i128:128-f80:128-n8:16:32:64-S128"
target triple = "x86_64-pc-linux-gnu"

%struct.__va_list_tag = type { i32, i32, ptr, ptr }
%struct.Vec_Str_t_ = type { i32, i32, ptr }

; Function Attrs: inlinehint nounwind uwtable
define internal ptr @Vec_StrLimit(ptr noundef %0) #3 {
  %2 = alloca ptr, align 8
  store ptr %0, ptr %2, align 8, !tbaa !23
  %3 = load ptr, ptr %2, align 8, !tbaa !23
  %4 = getelementptr inbounds nuw %struct.Vec_Str_t_, ptr %3, i32 0, i32 2
  %5 = load ptr, ptr %4, align 8, !tbaa !55
  %6 = load ptr, ptr %2, align 8, !tbaa !23
  %7 = getelementptr inbounds nuw %struct.Vec_Str_t_, ptr %6, i32 0, i32 1
  %8 = load i32, ptr %7, align 4, !tbaa !25
  %9 = sext i32 %8 to i64
  %10 = getelementptr inbounds i8, ptr %5, i64 %9
  ret ptr %10
}

; Function Attrs: inlinehint nounwind uwtable
define internal void @Vec_StrGrow(ptr noundef %0, i32 noundef %1) #3 {
  %3 = alloca ptr, align 8
  %4 = alloca i32, align 4
  store ptr %0, ptr %3, align 8, !tbaa !23
  store i32 %1, ptr %4, align 4, !tbaa !12
  %5 = load ptr, ptr %3, align 8, !tbaa !23
  %6 = getelementptr inbounds nuw %struct.Vec_Str_t_, ptr %5, i32 0, i32 0
  %7 = load i32, ptr %6, align 8, !tbaa !54
  %8 = load i32, ptr %4, align 4, !tbaa !12
  %9 = icmp sge i32 %7, %8
  br i1 %9, label %10, label %11

10:                                               ; preds = %2
  br label %36

11:                                               ; preds = %2
  %12 = load ptr, ptr %3, align 8, !tbaa !23
  %13 = getelementptr inbounds nuw %struct.Vec_Str_t_, ptr %12, i32 0, i32 2
  %14 = load ptr, ptr %13, align 8, !tbaa !55
  %15 = icmp ne ptr %14, null
  br i1 %15, label %16, label %24

16:                                               ; preds = %11
  %17 = load ptr, ptr %3, align 8, !tbaa !23
  %18 = getelementptr inbounds nuw %struct.Vec_Str_t_, ptr %17, i32 0, i32 2
  %19 = load ptr, ptr %18, align 8, !tbaa !55
  %20 = load i32, ptr %4, align 4, !tbaa !12
  %21 = sext i32 %20 to i64
  %22 = mul i64 1, %21
  %23 = call ptr @realloc(ptr noundef %19, i64 noundef %22) #14
  br label %29

24:                                               ; preds = %11
  %25 = load i32, ptr %4, align 4, !tbaa !12
  %26 = sext i32 %25 to i64
  %27 = mul i64 1, %26
  %28 = call noalias ptr @malloc(i64 noundef %27) #15
  br label %29

29:                                               ; preds = %24, %16
  %30 = phi ptr [ %23, %16 ], [ %28, %24 ]
  %31 = load ptr, ptr %3, align 8, !tbaa !23
  %32 = getelementptr inbounds nuw %struct.Vec_Str_t_, ptr %31, i32 0, i32 2
  store ptr %30, ptr %32, align 8, !tbaa !55
  %33 = load i32, ptr %4, align 4, !tbaa !12
  %34 = load ptr, ptr %3, align 8, !tbaa !23
  %35 = getelementptr inbounds nuw %struct.Vec_Str_t_, ptr %34, i32 0, i32 0
  store i32 %33, ptr %35, align 8, !tbaa !54
  br label %36

36:                                               ; preds = %29, %10
  ret void
}

; Function Attrs: inlinehint nounwind uwtable
define internal i32 @Vec_StrSize(ptr noundef %0) #3 {
  %2 = alloca ptr, align 8
  store ptr %0, ptr %2, align 8, !tbaa !23
  %3 = load ptr, ptr %2, align 8, !tbaa !23
  %4 = getelementptr inbounds nuw %struct.Vec_Str_t_, ptr %3, i32 0, i32 1
  %5 = load i32, ptr %4, align 4, !tbaa !25
  ret i32 %5
}

; Function Attrs: inlinehint nounwind uwtable
define internal ptr @Vec_StrPrintF(ptr noundef %0, ptr noundef %1, ...) #3 {
  %3 = alloca ptr, align 8
  %4 = alloca ptr, align 8
  %5 = alloca i32, align 4
  %6 = alloca i32, align 4
  %7 = alloca [1 x %struct.__va_list_tag], align 16
  store ptr %0, ptr %3, align 8, !tbaa !23
  store ptr %1, ptr %4, align 8, !tbaa !8
  call void @llvm.lifetime.start.p0(i64 4, ptr %5) #12
  call void @llvm.lifetime.start.p0(i64 4, ptr %6) #12
  store i32 1000, ptr %6, align 4, !tbaa !12
  call void @llvm.lifetime.start.p0(i64 24, ptr %7) #12
  %8 = getelementptr inbounds [1 x %struct.__va_list_tag], ptr %7, i64 0, i64 0
  call void @llvm.va_start.p0(ptr %8)
  %9 = load ptr, ptr %3, align 8, !tbaa !23
  %10 = load ptr, ptr %3, align 8, !tbaa !23
  %11 = call i32 @Vec_StrSize(ptr noundef %10)
  %12 = load i32, ptr %6, align 4, !tbaa !12
  %13 = add nsw i32 %11, %12
  call void @Vec_StrGrow(ptr noundef %9, i32 noundef %13)
  %14 = load ptr, ptr %3, align 8, !tbaa !23
  %15 = call ptr @Vec_StrLimit(ptr noundef %14)
  %16 = load i32, ptr %6, align 4, !tbaa !12
  %17 = sext i32 %16 to i64
  %18 = load ptr, ptr %4, align 8, !tbaa !8
  %19 = getelementptr inbounds [1 x %struct.__va_list_tag], ptr %7, i64 0, i64 0
  %20 = call i32 @vsnprintf(ptr noundef %15, i64 noundef %17, ptr noundef %18, ptr noundef %19) #12
  store i32 %20, ptr %5, align 4, !tbaa !12
  %21 = load i32, ptr %5, align 4, !tbaa !12
  %22 = load i32, ptr %6, align 4, !tbaa !12
  %23 = icmp sgt i32 %21, %22
  br i1 %23, label %24, label %39

24:                                               ; preds = %2
  %25 = load ptr, ptr %3, align 8, !tbaa !23
  %26 = load ptr, ptr %3, align 8, !tbaa !23
  %27 = call i32 @Vec_StrSize(ptr noundef %26)
  %28 = load i32, ptr %5, align 4, !tbaa !12
  %29 = add nsw i32 %27, %28
  %30 = load i32, ptr %6, align 4, !tbaa !12
  %31 = add nsw i32 %29, %30
  call void @Vec_StrGrow(ptr noundef %25, i32 noundef %31)
  %32 = load ptr, ptr %3, align 8, !tbaa !23
  %33 = call ptr @Vec_StrLimit(ptr noundef %32)
  %34 = load i32, ptr %5, align 4, !tbaa !12
  %35 = sext i32 %34 to i64
  %36 = load ptr, ptr %4, align 8, !tbaa !8
  %37 = getelementptr inbounds [1 x %struct.__va_list_tag], ptr %7, i64 0, i64 0
  %38 = call i32 @vsnprintf(ptr noundef %33, i64 noundef %35, ptr noundef %36, ptr noundef %37) #12
  store i32 %38, ptr %6, align 4, !tbaa !12
  br label %39

39:                                               ; preds = %24, %2
  %40 = load i32, ptr %5, align 4, !tbaa !12
  %41 = load ptr, ptr %3, align 8, !tbaa !23
  %42 = getelementptr inbounds nuw %struct.Vec_Str_t_, ptr %41, i32 0, i32 1
  %43 = load i32, ptr %42, align 4, !tbaa !25
  %44 = add nsw i32 %43, %40
  store i32 %44, ptr %42, align 4, !tbaa !25
  %45 = getelementptr inbounds [1 x %struct.__va_list_tag], ptr %7, i64 0, i64 0
  call void @llvm.va_end.p0(ptr %45)
  %46 = load ptr, ptr %3, align 8, !tbaa !23
  %47 = call ptr @Vec_StrLimit(ptr noundef %46)
  %48 = load i32, ptr %5, align 4, !tbaa !12
  %49 = sext i32 %48 to i64
  %50 = sub i64 0, %49
  %51 = getelementptr inbounds i8, ptr %47, i64 %50
  call void @llvm.lifetime.end.p0(i64 24, ptr %7) #12
  call void @llvm.lifetime.end.p0(i64 4, ptr %6) #12
  call void @llvm.lifetime.end.p0(i64 4, ptr %5) #12
  ret ptr %51
}